target datalayout = "e-m:e-p270:32:32-p271:32:32-p272:64:64-i64:64-i128:128-f80:128-n8:16:32:64-S128"
target triple = "x86_64-pc-linux-gnu"

%struct._xmpp_element_t = type { ptr, ptr, ptr, ptr, ptr, ptr, i32, i32, i8 }
%struct._GList = type { ptr, ptr, ptr }

; Function Attrs: null_pointer_is_valid sspstrong uwtable
define internal ptr @xmpp_find_element_by_name(ptr noundef %0, ptr noundef %1) #0 {
  %3 = alloca ptr, align 8
  %4 = alloca ptr, align 8
  %5 = alloca ptr, align 8
  %6 = alloca ptr, align 8
  %7 = alloca ptr, align 8
  %8 = alloca i32, align 4
  store ptr %0, ptr %4, align 8
  store ptr %1, ptr %5, align 8
  call void @llvm.lifetime.start.p0(i64 8, ptr %6) #8
  call void @llvm.lifetime.start.p0(i64 8, ptr %7) #8
  %9 = call ptr @wmem_packet_scope()
  %10 = call noalias ptr @wmem_alloc(ptr noundef %9, i64 noundef 64) #9
  store ptr %10, ptr %7, align 8
  %11 = call ptr @wmem_packet_scope()
  %12 = load ptr, ptr %5, align 8
  %13 = call noalias ptr @wmem_strdup(ptr noundef %11, ptr noundef %12)
  %14 = load ptr, ptr %7, align 8
  %15 = getelementptr inbounds nuw %struct._xmpp_element_t, ptr %14, i32 0, i32 0
  store ptr %13, ptr %15, align 8
  %16 = load ptr, ptr %4, align 8
  %17 = getelementptr inbounds nuw %struct._xmpp_element_t, ptr %16, i32 0, i32 4
  %18 = load ptr, ptr %17, align 8
  %19 = load ptr, ptr %7, align 8
  %20 = call ptr @g_list_find_custom(ptr noundef %18, ptr noundef %19, ptr noundef @xmpp_element_t_cmp)
  store ptr %20, ptr %6, align 8
  %21 = load ptr, ptr %6, align 8
  %22 = icmp ne ptr %21, null
  br i1 %22, label %23, label %25

23:                                               ; preds = %2
  %24 = load ptr, ptr %6, align 8
  store ptr %24, ptr %3, align 8
  store i32 1, ptr %8, align 4
  br label %26

25:                                               ; preds = %2
  store ptr null, ptr %3, align 8
  store i32 1, ptr %8, align 4
  br label %26

26:                                               ; preds = %25, %23
  call void @llvm.lifetime.end.p0(i64 8, ptr %7) #8
  call void @llvm.lifetime.end.p0(i64 8, ptr %6) #8
  %27 = load ptr, ptr %3, align 8
  ret ptr %27
}

; Function Attrs: null_pointer_is_valid sspstrong uwtable
define hidden ptr @xmpp_steal_element_by_name(ptr noundef %0, ptr noundef %1) #0 {
  %3 = alloca ptr, align 8
  %4 = alloca ptr, align 8
  %5 = alloca ptr, align 8
  %6 = alloca ptr, align 8
  store ptr %0, ptr %3, align 8
  store ptr %1, ptr %4, align 8
  call void @llvm.lifetime.start.p0(i64 8, ptr %5) #8
  call void @llvm.lifetime.start.p0(i64 8, ptr %6) #8
  store ptr null, ptr %6, align 8
  %7 = load ptr, ptr %3, align 8
  %8 = load ptr, ptr %4, align 8
  %9 = call ptr @xmpp_find_element_by_name(ptr noundef %7, ptr noundef %8)
  store ptr %9, ptr %5, align 8
  %10 = load ptr, ptr %5, align 8
  %11 = icmp ne ptr %10, null
  br i1 %11, label %12, label %18

12:                                               ; preds = %2
  %13 = load ptr, ptr %5, align 8
  %14 = getelementptr inbounds nuw %struct._GList, ptr %13, i32 0, i32 0
  %15 = load ptr, ptr %14, align 8
  store ptr %15, ptr %6, align 8
  %16 = load ptr, ptr %6, align 8
  %17 = getelementptr inbounds nuw %struct._xmpp_element_t, ptr %16, i32 0, i32 8
  store i8 1, ptr %17, align 8
  br label %18

18:                                               ; preds = %12, %2
  %19 = load ptr, ptr %6, align 8
  call void @llvm.lifetime.end.p0(i64 8, ptr %6) #8
  call void @llvm.lifetime.end.p0(i64 8, ptr %5) #8
  ret ptr %19
}

; Function Attrs: null_pointer_is_valid sspstrong uwtable
define hidden void @xmpp_change_elem_to_attrib(ptr noundef %0, ptr noundef %1, ptr noundef %2, ptr noundef %3, ptr noundef %4) #0 {
  %6 = alloca ptr, align 8
  %7 = alloca ptr, align 8
  %8 = alloca ptr, align 8
  %9 = alloca ptr, align 8
  %10 = alloca ptr, align 8
  %11 = alloca ptr, align 8
  %12 = alloca ptr, align 8
  store ptr %0, ptr %6, align 8
  store ptr %1, ptr %7, align 8
  store ptr %2, ptr %8, align 8
  store ptr %3, ptr %9, align 8
  store ptr %4, ptr %10, align 8
  call void @llvm.lifetime.start.p0(i64 8, ptr %11) #8
  store ptr null, ptr %11, align 8
  call void @llvm.lifetime.start.p0(i64 8, ptr %12) #8
  store ptr null, ptr %12, align 8
  %13 = load ptr, ptr %9, align 8
  %14 = load ptr, ptr %7, align 8
  %15 = call ptr @xmpp_steal_element_by_name(ptr noundef %13, ptr noundef %14)
  store ptr %15, ptr %11, align 8
  %16 = load ptr, ptr %11, align 8
  %17 = icmp ne ptr %16, null
  br i1 %17, label %18, label %23

18:                                               ; preds = %5
  %19 = load ptr, ptr %10, align 8
  %20 = load ptr, ptr %6, align 8
  %21 = load ptr, ptr %11, align 8
  %22 = call ptr %19(ptr noundef %20, ptr noundef %21)
  store ptr %22, ptr %12, align 8
  br label %23

23:                                               ; preds = %18, %5
  %24 = load ptr, ptr %12, align 8
  %25 = icmp ne ptr %24, null
  br i1 %25, label %26, label %33

26:                                               ; preds = %23
  %27 = load ptr, ptr %9, align 8
  %28 = getelementptr inbounds nuw %struct._xmpp_element_t, ptr %27, i32 0, i32 3
  %29 = load ptr, ptr %28, align 8
  %30 = load ptr, ptr %8, align 8
  %31 = load ptr, ptr %12, align 8
  %32 = call i32 @g_hash_table_insert(ptr noundef %29, ptr noundef %30, ptr noundef %31)
  br label %33

33:                                               ; preds = %26, %23
  call void @llvm.lifetime.end.p0(i64 8, ptr %12) #8
  call void @llvm.lifetime.end.p0(i64 8, ptr %11) #8
  ret void
}