; Function Attrs: null_pointer_is_valid sspstrong uwtable
define hidden void @xmpp_change_elem_to_attrib(ptr noundef %0, ptr noundef %1, ptr noundef %2, ptr noundef readonly captures(none) %3, ptr noundef readonly captures(none) %4) local_unnamed_addr #0 {
  %6 = tail call ptr @wmem_packet_scope()
  %7 = tail call noalias dereferenceable_or_null(64) ptr @wmem_alloc(ptr noundef %6, i64 noundef 64) #10
  %8 = tail call ptr @wmem_packet_scope()
  %9 = tail call noalias ptr @wmem_strdup(ptr noundef %8, ptr noundef %1)
  store ptr %9, ptr %7, align 8
  %10 = getelementptr inbounds nuw i8, ptr %3, i64 32
  %11 = load ptr, ptr %10, align 8
  %12 = tail call ptr @g_list_find_custom(ptr noundef %11, ptr noundef %7, ptr noundef nonnull @xmpp_element_t_cmp)
  %.not.i = icmp eq ptr %12, null
  br i1 %.not.i, label %.thread, label %xmpp_steal_element_by_name.exit

xmpp_steal_element_by_name.exit:                  ; preds = %5
  %13 = load ptr, ptr %12, align 8
  %14 = getelementptr inbounds nuw i8, ptr %13, i64 56
  store i8 1, ptr %14, align 8
  %.not = icmp eq ptr %13, null
  br i1 %.not, label %.thread, label %15

15:                                               ; preds = %xmpp_steal_element_by_name.exit
  %16 = tail call ptr %4(ptr noundef %0, ptr noundef nonnull %13)
  %.not11 = icmp eq ptr %16, null
  br i1 %.not11, label %.thread, label %17

17:                                               ; preds = %15
  %18 = getelementptr inbounds nuw i8, ptr %3, i64 24
  %19 = load ptr, ptr %18, align 8
  %20 = tail call i32 @g_hash_table_insert(ptr noundef %19, ptr noundef %2, ptr noundef nonnull %16)
  br label %.thread

.thread:                                          ; preds = %5, %xmpp_steal_element_by_name.exit, %17, %15
  ret void
}